; Function Attrs: mustprogress uwtable
define hidden void @_ZN4cvc58internal6theory22TheoryInferenceManager23conflictEqConstantMergeENS0_12NodeTemplateILb0EEES4_(ptr noundef nonnull align 8 dereferenceable(256) %this, ptr nocapture noundef readonly %a, ptr nocapture noundef readonly %b) local_unnamed_addr #3 align 2 personality ptr @__gxx_personality_v0 {
entry:
  %tconf = alloca %"class.cvc5::internal::TrustNode", align 8
  %agg.tmp = alloca %"class.cvc5::internal::NodeTemplate.590", align 8
  %agg.tmp2 = alloca %"class.cvc5::internal::NodeTemplate.590", align 8
  %agg.tmp7 = alloca %"class.cvc5::internal::TrustNode", align 8
  %d_theoryState = getelementptr inbounds i8, ptr %this, i64 24
  %0 = load ptr, ptr %d_theoryState, align 8
  %vtable = load ptr, ptr %0, align 8
  %vfn = getelementptr inbounds i8, ptr %vtable, i64 72
  %1 = load ptr, ptr %vfn, align 8
  %call = tail call noundef zeroext i1 %1(ptr noundef nonnull align 8 dereferenceable(80) %0)
  br i1 %call, label %if.end, label %if.then

if.then:                                          ; preds = %entry
  %2 = load ptr, ptr %a, align 8
  store ptr %2, ptr %agg.tmp, align 8
  %3 = load ptr, ptr %b, align 8
  store ptr %3, ptr %agg.tmp2, align 8
  %vtable3 = load ptr, ptr %this, align 8
  %vfn4 = getelementptr inbounds i8, ptr %vtable3, i64 48
  %4 = load ptr, ptr %vfn4, align 8
  call void %4(ptr nonnull sret(%"class.cvc5::internal::TrustNode") align 8 %tconf, ptr noundef nonnull align 8 dereferenceable(256) %this, ptr noundef nonnull %agg.tmp, ptr noundef nonnull %agg.tmp2)
  %5 = load i32, ptr %tconf, align 8
  store i32 %5, ptr %agg.tmp7, align 8
  %d_proven.i = getelementptr inbounds i8, ptr %agg.tmp7, i64 8
  %d_proven3.i = getelementptr inbounds i8, ptr %tconf, i64 8
  %6 = load ptr, ptr %d_proven3.i, align 8
  store ptr %6, ptr %d_proven.i, align 8
  %bf.load.i.i.i = load i64, ptr %6, align 8
  %bf.lshr.i.i.i = lshr i64 %bf.load.i.i.i, 40
  %7 = trunc i64 %bf.lshr.i.i.i to i32
  %bf.cast.i.i.i = and i32 %7, 1048575
  %cmp.i.i.i = icmp ult i32 %bf.cast.i.i.i, 1048574
  br i1 %cmp.i.i.i, label %if.then.i.i.i, label %if.else.i.i.i

if.then.i.i.i:                                    ; preds = %if.then
  %bf.value.i.i.i = add i64 %bf.load.i.i.i, 1099511627776
  %bf.shl.i.i.i = and i64 %bf.value.i.i.i, 1152920405095219200
  %bf.clear7.i.i.i = and i64 %bf.load.i.i.i, -1152920405095219201
  %bf.set.i.i.i = or disjoint i64 %bf.shl.i.i.i, %bf.clear7.i.i.i
  store i64 %bf.set.i.i.i, ptr %6, align 8
  br label %invoke.cont9

if.else.i.i.i:                                    ; preds = %if.then
  %cmp12.i.i.i = icmp eq i32 %bf.cast.i.i.i, 1048574
  br i1 %cmp12.i.i.i, label %if.then13.i.i.i, label %invoke.cont9

if.then13.i.i.i:                                  ; preds = %if.else.i.i.i
  %bf.set23.i.i.i = or i64 %bf.load.i.i.i, 1152920405095219200
  store i64 %bf.set23.i.i.i, ptr %6, align 8
  invoke void @_ZN4cvc58internal4expr9NodeValue20markRefCountMaxedOutEv(ptr noundef nonnull align 8 dereferenceable(16) %6)
          to label %invoke.cont9 unwind label %lpad8

invoke.cont9:                                     ; preds = %if.else.i.i.i, %if.then.i.i.i, %if.then13.i.i.i
  %d_gen.i = getelementptr inbounds i8, ptr %agg.tmp7, i64 16
  %d_gen4.i = getelementptr inbounds i8, ptr %tconf, i64 16
  %8 = load ptr, ptr %d_gen4.i, align 8
  store ptr %8, ptr %d_gen.i, align 8
  invoke void @_ZN4cvc58internal6theory22TheoryInferenceManager15trustedConflictENS0_9TrustNodeENS1_11InferenceIdE(ptr noundef nonnull align 8 dereferenceable(256) %this, ptr noundef nonnull %agg.tmp7, i32 noundef 1)
          to label %invoke.cont11 unwind label %lpad10

invoke.cont11:                                    ; preds = %invoke.cont9
  %9 = load ptr, ptr %d_proven.i, align 8
  %bf.load.i.i.i4 = load i64, ptr %9, align 8
  %10 = and i64 %bf.load.i.i.i4, 1152920405095219200
  %cmp.not.i.i.i = icmp eq i64 %10, 1152920405095219200
  br i1 %cmp.not.i.i.i, label %_ZN4cvc58internal9TrustNodeD2Ev.exit, label %if.then.i.i.i5

if.then.i.i.i5:                                   ; preds = %invoke.cont11
  %bf.value.i.i.i6 = add i64 %bf.load.i.i.i4, 1152920405095219200
  %bf.shl.i.i.i7 = and i64 %bf.value.i.i.i6, 1152920405095219200
  %bf.clear7.i.i.i8 = and i64 %bf.load.i.i.i4, -1152920405095219201
  %bf.set.i.i.i9 = or disjoint i64 %bf.shl.i.i.i7, %bf.clear7.i.i.i8
  store i64 %bf.set.i.i.i9, ptr %9, align 8
  %cmp12.i.i.i10 = icmp eq i64 %bf.shl.i.i.i7, 0
  br i1 %cmp12.i.i.i10, label %if.then13.i.i.i11, label %_ZN4cvc58internal9TrustNodeD2Ev.exit

if.then13.i.i.i11:                                ; preds = %if.then.i.i.i5
  invoke void @_ZN4cvc58internal4expr9NodeValue15markForDeletionEv(ptr noundef nonnull align 8 dereferenceable(16) %9)
          to label %_ZN4cvc58internal9TrustNodeD2Ev.exit unwind label %terminate.lpad.i.i

terminate.lpad.i.i:                               ; preds = %if.then13.i.i.i11
  %11 = landingpad { ptr, i32 }
          catch ptr null
  %12 = extractvalue { ptr, i32 } %11, 0
  call void @__clang_call_terminate(ptr %12) #26
  unreachable

_ZN4cvc58internal9TrustNodeD2Ev.exit:             ; preds = %invoke.cont11, %if.then.i.i.i5, %if.then13.i.i.i11
  %13 = load ptr, ptr %d_proven3.i, align 8
  %bf.load.i.i.i13 = load i64, ptr %13, align 8
  %14 = and i64 %bf.load.i.i.i13, 1152920405095219200
  %cmp.not.i.i.i14 = icmp eq i64 %14, 1152920405095219200
  br i1 %cmp.not.i.i.i14, label %if.end, label %if.then.i.i.i15

if.then.i.i.i15:                                  ; preds = %_ZN4cvc58internal9TrustNodeD2Ev.exit
  %bf.value.i.i.i16 = add i64 %bf.load.i.i.i13, 1152920405095219200
  %bf.shl.i.i.i17 = and i64 %bf.value.i.i.i16, 1152920405095219200
  %bf.clear7.i.i.i18 = and i64 %bf.load.i.i.i13, -1152920405095219201
  %bf.set.i.i.i19 = or disjoint i64 %bf.shl.i.i.i17, %bf.clear7.i.i.i18
  store i64 %bf.set.i.i.i19, ptr %13, align 8
  %cmp12.i.i.i20 = icmp eq i64 %bf.shl.i.i.i17, 0
  br i1 %cmp12.i.i.i20, label %if.then13.i.i.i21, label %if.end

if.then13.i.i.i21:                                ; preds = %if.then.i.i.i15
  invoke void @_ZN4cvc58internal4expr9NodeValue15markForDeletionEv(ptr noundef nonnull align 8 dereferenceable(16) %13)
          to label %if.end unwind label %terminate.lpad.i.i22

terminate.lpad.i.i22:                             ; preds = %if.then13.i.i.i21
  %15 = landingpad { ptr, i32 }
          catch ptr null
  %16 = extractvalue { ptr, i32 } %15, 0
  call void @__clang_call_terminate(ptr %16) #26
  unreachable

lpad8:                                            ; preds = %if.then13.i.i.i
  %17 = landingpad { ptr, i32 }
          cleanup
  br label %ehcleanup13

lpad10:                                           ; preds = %invoke.cont9
  %18 = landingpad { ptr, i32 }
          cleanup
  call void @_ZN4cvc58internal9TrustNodeD2Ev(ptr noundef nonnull align 8 dereferenceable(24) %agg.tmp7) #25
  br label %ehcleanup13

ehcleanup13:                                      ; preds = %lpad10, %lpad8
  %.pn = phi { ptr, i32 } [ %18, %lpad10 ], [ %17, %lpad8 ]
  call void @_ZN4cvc58internal9TrustNodeD2Ev(ptr noundef nonnull align 8 dereferenceable(24) %tconf) #25
  resume { ptr, i32 } %.pn

if.end:                                           ; preds = %if.then13.i.i.i21, %if.then.i.i.i15, %_ZN4cvc58internal9TrustNodeD2Ev.exit, %entry
  ret void
}